; Function Attrs: nounwind uwtable
define range(i32 0, 2) i32 @lv_image_decoder_get_info(ptr noundef %0, ptr noundef %1) local_unnamed_addr #0 {
  %3 = alloca %struct._lv_image_decoder_dsc_t, align 8
  call void @llvm.lifetime.start.p0(i64 128, ptr nonnull %3) #6
  call void @lv_memset(ptr noundef nonnull %3, i8 noundef zeroext 0, i64 noundef 128) #6
  %4 = getelementptr inbounds nuw i8, ptr %3, i64 16
  store ptr %0, ptr %4, align 8, !tbaa !31
  %5 = call i32 @lv_image_src_get_type(ptr noundef %0) #6
  %6 = getelementptr inbounds nuw i8, ptr %3, i64 24
  store i32 %5, ptr %6, align 8, !tbaa !41
  %7 = call fastcc ptr @image_decoder_get_info(ptr noundef nonnull %3, ptr noundef %1)
  %8 = icmp ne ptr %7, null
  %. = zext i1 %8 to i32
  call void @llvm.lifetime.end.p0(i64 128, ptr nonnull %3) #6
  ret i32 %.
}